target datalayout = "e-m:e-p270:32:32-p271:32:32-p272:64:64-i64:64-i128:128-f80:128-n8:16:32:64-S128"
target triple = "x86_64-pc-linux-gnu"

%struct.FFHWAccel = type { %struct.AVHWAccel, ptr, ptr, ptr, ptr, ptr, i32, i32, i32, ptr, ptr, ptr, ptr, ptr, ptr }
%struct.AVHWAccel = type { ptr, i32, i32, i32, i32 }
%struct.ProbContext = type { [4 x [9 x i8]], [10 x [9 x i8]], [4 x [2 x i8]], [7 x [3 x i8]], [4 x i8], [5 x i8], [5 x [2 x i8]], [5 x i8], [2 x [3 x i8]], [2 x [2 x i8]], [2 x i8], [3 x i8], [3 x i8], [2 x %struct.anon.8], [4 x [4 x [3 x i8]]] }
%struct.anon.8 = type { i8, [10 x i8], i8, [10 x i8], [2 x [3 x i8]], [3 x i8], i8, i8 }
%struct.AVCodecContext = type { ptr, i32, i32, ptr, i32, i32, ptr, ptr, ptr, i64, i32, i32, ptr, i32, %struct.AVRational, %struct.AVRational, %struct.AVRational, i32, i32, i32, i32, i32, %struct.AVRational, i32, i32, i32, i32, i32, i32, i32, i32, i32, i32, i32, ptr, ptr, i32, float, float, float, float, float, float, float, float, float, i32, i32, i32, i32, i32, i32, i32, i32, i32, i32, i32, i32, ptr, ptr, ptr, i32, i32, i32, i32, i32, i32, i32, i32, i32, i32, %struct.AVChannelLayout, i32, i32, i32, i32, i32, i32, i32, i32, ptr, i32, i32, i32, float, float, i32, i32, i32, i32, i32, ptr, i64, i64, float, float, i32, i32, ptr, ptr, i32, i32, i32, i32, i32, ptr, ptr, ptr, ptr, i32, i32, [8 x i64], i32, i32, i32, i32, i32, i32, i32, ptr, ptr, i32, i32, i32, i32, i32, i32, i32, i32, i32, i32, ptr, ptr, i32, i32, ptr, ptr, ptr, ptr, i32, i32, i64, i32, i32, i64, ptr, i64, ptr, i32, ptr, i32 }
%struct.AVRational = type { i32, i32 }
%struct.AVChannelLayout = type { i32, i32, %union.anon.0, ptr }
%union.anon.0 = type { i64 }
%struct.VP9Context = type { %struct.VP9SharedContext, ptr, %struct.VP9DSPContext, %struct.VideoDSPContext, %struct.GetBitContext, %struct.VPXRangeCoder, i32, i32, %union.pthread_mutex_t, %union.pthread_cond_t, ptr, i32, i8, i8, i8, i8, i8, i8, i32, i32, i32, i32, i32, i32, i32, i32, i32, [8 x %struct.ProgressFrame], %struct.anon.6, [4 x %struct.anon.7], %struct.anon.9, ptr, ptr, ptr, [2 x ptr], ptr, ptr, ptr, ptr, ptr, ptr, ptr, ptr, [3 x ptr], ptr, i32, [3 x [2 x i16]], [3 x [2 x i8]], ptr, i32 }
%struct.VP9SharedContext = type { %struct.VP9BitstreamHeader, [8 x %struct.ProgressFrame], [4 x %struct.VP9Frame] }
%struct.VP9BitstreamHeader = type { i8, i8, i8, i8, i8, i8, i8, i8, i8, i32, i8, i8, i8, i8, i8, [3 x i8], [3 x i8], i8, [2 x i8], %struct.anon, %struct.anon.1, i8, i8, i8, i8, i8, %struct.anon.2, i32, i32, %struct.anon.4, i32, i32 }
%struct.anon = type { i8, i8 }
%struct.anon.1 = type { i8, i8, [2 x i8], [4 x i8] }
%struct.anon.2 = type { i8, i8, i8, i8, [7 x i8], [3 x i8], [8 x %struct.anon.3] }
%struct.anon.3 = type { i8, i8, i8, i8, i8, i16, i8, [2 x [2 x i16]], [4 x [2 x i8]] }
%struct.anon.4 = type { i32, i32, i32, i32 }
%struct.VP9Frame = type { %struct.ProgressFrame, ptr, ptr, ptr, i32, ptr }
%struct.ProgressFrame = type { ptr, ptr }
%struct.VP9DSPContext = type { [4 x [15 x ptr]], [5 x [4 x ptr]], [3 x [2 x ptr]], [2 x ptr], [2 x [2 x [2 x ptr]]], [5 x [4 x [2 x [2 x [2 x ptr]]]]], [5 x [4 x [2 x ptr]]] }
%struct.VideoDSPContext = type { ptr, ptr }
%struct.GetBitContext = type { ptr, ptr, i32, i32, i32 }
%struct.VPXRangeCoder = type { i32, i32, ptr, ptr, i32, i32 }
%union.pthread_mutex_t = type { %struct.__pthread_mutex_s }
%struct.__pthread_mutex_s = type { i32, i32, i32, i32, i32, i16, i16, %struct.__pthread_internal_list }
%struct.__pthread_internal_list = type { ptr, ptr }
%union.pthread_cond_t = type { %struct.__pthread_cond_s }
%struct.__pthread_cond_s = type { %union.__atomic_wide_counter, %union.__atomic_wide_counter, [2 x i32], [2 x i32], i32, i32, [2 x i32] }
%union.__atomic_wide_counter = type { i64 }
%struct.anon.6 = type { [64 x i8], [64 x i8] }
%struct.anon.7 = type { %struct.ProbContext, [4 x [2 x [2 x [6 x [6 x [3 x i8]]]]]] }
%struct.anon.9 = type { %struct.ProbContext, [4 x [2 x [2 x [6 x [6 x [11 x i8]]]]]] }

; Function Attrs: inlinehint nounwind uwtable
define internal ptr @ffhwaccel(ptr noundef %0) #5 {
  %2 = alloca ptr, align 8
  store ptr %0, ptr %2, align 8, !tbaa !273
  %3 = load ptr, ptr %2, align 8, !tbaa !273
  ret ptr %3
}

; Function Attrs: nounwind uwtable
define internal void @vp9_frame_unref(ptr noundef %0) #0 {
  %2 = alloca ptr, align 8
  store ptr %0, ptr %2, align 8, !tbaa !98
  %3 = load ptr, ptr %2, align 8, !tbaa !98
  %4 = getelementptr inbounds nuw %struct.VP9Frame, ptr %3, i32 0, i32 0
  call void @ff_progress_frame_unref(ptr noundef %4)
  %5 = load ptr, ptr %2, align 8, !tbaa !98
  %6 = getelementptr inbounds nuw %struct.VP9Frame, ptr %5, i32 0, i32 1
  call void @av_refstruct_unref(ptr noundef %6)
  %7 = load ptr, ptr %2, align 8, !tbaa !98
  %8 = getelementptr inbounds nuw %struct.VP9Frame, ptr %7, i32 0, i32 5
  call void @av_refstruct_unref(ptr noundef %8)
  %9 = load ptr, ptr %2, align 8, !tbaa !98
  %10 = getelementptr inbounds nuw %struct.VP9Frame, ptr %9, i32 0, i32 2
  store ptr null, ptr %10, align 8, !tbaa !82
  ret void
}

; Function Attrs: nounwind uwtable
define internal void @vp9_decode_flush(ptr noundef %0) #0 {
  %2 = alloca ptr, align 8
  %3 = alloca ptr, align 8
  %4 = alloca i32, align 4
  store ptr %0, ptr %2, align 8, !tbaa !4
  call void @llvm.lifetime.start.p0(i64 8, ptr %3) #11
  %5 = load ptr, ptr %2, align 8, !tbaa !4
  %6 = getelementptr inbounds nuw %struct.AVCodecContext, ptr %5, i32 0, i32 6
  %7 = load ptr, ptr %6, align 8, !tbaa !9
  store ptr %7, ptr %3, align 8, !tbaa !29
  call void @llvm.lifetime.start.p0(i64 4, ptr %4) #11
  store i32 0, ptr %4, align 4, !tbaa !31
  br label %8

8:                                                ; preds = %18, %1
  %9 = load i32, ptr %4, align 4, !tbaa !31
  %10 = icmp slt i32 %9, 3
  br i1 %10, label %11, label %21

11:                                               ; preds = %8
  %12 = load ptr, ptr %3, align 8, !tbaa !29
  %13 = getelementptr inbounds nuw %struct.VP9Context, ptr %12, i32 0, i32 0
  %14 = getelementptr inbounds nuw %struct.VP9SharedContext, ptr %13, i32 0, i32 2
  %15 = load i32, ptr %4, align 4, !tbaa !31
  %16 = sext i32 %15 to i64
  %17 = getelementptr inbounds [4 x %struct.VP9Frame], ptr %14, i64 0, i64 %16
  call void @vp9_frame_unref(ptr noundef %17)
  br label %18

18:                                               ; preds = %11
  %19 = load i32, ptr %4, align 4, !tbaa !31
  %20 = add nsw i32 %19, 1
  store i32 %20, ptr %4, align 4, !tbaa !31
  br label %8, !llvm.loop !169

21:                                               ; preds = %8
  store i32 0, ptr %4, align 4, !tbaa !31
  br label %22

22:                                               ; preds = %32, %21
  %23 = load i32, ptr %4, align 4, !tbaa !31
  %24 = icmp slt i32 %23, 8
  br i1 %24, label %25, label %35

25:                                               ; preds = %22
  %26 = load ptr, ptr %3, align 8, !tbaa !29
  %27 = getelementptr inbounds nuw %struct.VP9Context, ptr %26, i32 0, i32 0
  %28 = getelementptr inbounds nuw %struct.VP9SharedContext, ptr %27, i32 0, i32 1
  %29 = load i32, ptr %4, align 4, !tbaa !31
  %30 = sext i32 %29 to i64
  %31 = getelementptr inbounds [8 x %struct.ProgressFrame], ptr %28, i64 0, i64 %30
  call void @ff_progress_frame_unref(ptr noundef %31)
  br label %32

32:                                               ; preds = %25
  %33 = load i32, ptr %4, align 4, !tbaa !31
  %34 = add nsw i32 %33, 1
  store i32 %34, ptr %4, align 4, !tbaa !31
  br label %22, !llvm.loop !170

35:                                               ; preds = %22
  %36 = load ptr, ptr %2, align 8, !tbaa !4
  %37 = getelementptr inbounds nuw %struct.AVCodecContext, ptr %36, i32 0, i32 105
  %38 = load ptr, ptr %37, align 8, !tbaa !108
  %39 = icmp ne ptr %38, null
  br i1 %39, label %40, label %56

40:                                               ; preds = %35
  %41 = load ptr, ptr %2, align 8, !tbaa !4
  %42 = getelementptr inbounds nuw %struct.AVCodecContext, ptr %41, i32 0, i32 105
  %43 = load ptr, ptr %42, align 8, !tbaa !108
  %44 = call ptr @ffhwaccel(ptr noundef %43)
  %45 = getelementptr inbounds nuw %struct.FFHWAccel, ptr %44, i32 0, i32 14
  %46 = load ptr, ptr %45, align 8, !tbaa !171
  %47 = icmp ne ptr %46, null
  br i1 %47, label %48, label %56

48:                                               ; preds = %40
  %49 = load ptr, ptr %2, align 8, !tbaa !4
  %50 = getelementptr inbounds nuw %struct.AVCodecContext, ptr %49, i32 0, i32 105
  %51 = load ptr, ptr %50, align 8, !tbaa !108
  %52 = call ptr @ffhwaccel(ptr noundef %51)
  %53 = getelementptr inbounds nuw %struct.FFHWAccel, ptr %52, i32 0, i32 14
  %54 = load ptr, ptr %53, align 8, !tbaa !171
  %55 = load ptr, ptr %2, align 8, !tbaa !4
  call void %54(ptr noundef %55)
  br label %56

56:                                               ; preds = %48, %40, %35
  call void @llvm.lifetime.end.p0(i64 4, ptr %4) #11
  call void @llvm.lifetime.end.p0(i64 8, ptr %3) #11
  ret void
}