; Function Attrs: nounwind uwtable
define internal void @vp9_decode_flush(ptr noundef %0) #0 {
  %2 = getelementptr inbounds nuw i8, ptr %0, i64 32
  %3 = load ptr, ptr %2, align 8, !tbaa !4
  %4 = getelementptr inbounds nuw i8, ptr %3, i64 432
  br label %6

.preheader:                                       ; preds = %6
  %5 = getelementptr inbounds nuw i8, ptr %3, i64 304
  br label %11

6:                                                ; preds = %1, %6
  %indvars.iv = phi i64 [ 0, %1 ], [ %indvars.iv.next, %6 ]
  %7 = getelementptr inbounds nuw [4 x %struct.VP9Frame], ptr %4, i64 0, i64 %indvars.iv
  tail call void @ff_progress_frame_unref(ptr noundef nonnull %7) #12
  %8 = getelementptr inbounds nuw i8, ptr %7, i64 16
  tail call void @av_refstruct_unref(ptr noundef nonnull %8) #12
  %9 = getelementptr inbounds nuw i8, ptr %7, i64 48
  tail call void @av_refstruct_unref(ptr noundef nonnull %9) #12
  %10 = getelementptr inbounds nuw i8, ptr %7, i64 24
  store ptr null, ptr %10, align 8, !tbaa !33
  %indvars.iv.next = add nuw nsw i64 %indvars.iv, 1
  %exitcond.not = icmp eq i64 %indvars.iv.next, 3
  br i1 %exitcond.not, label %.preheader, label %6, !llvm.loop !185

11:                                               ; preds = %.preheader, %11
  %indvars.iv17 = phi i64 [ 0, %.preheader ], [ %indvars.iv.next18, %11 ]
  %12 = getelementptr inbounds nuw [8 x %struct.ProgressFrame], ptr %5, i64 0, i64 %indvars.iv17
  tail call void @ff_progress_frame_unref(ptr noundef nonnull %12) #12
  %indvars.iv.next18 = add nuw nsw i64 %indvars.iv17, 1
  %exitcond20.not = icmp eq i64 %indvars.iv.next18, 8
  br i1 %exitcond20.not, label %13, label %11, !llvm.loop !186

13:                                               ; preds = %11
  %14 = getelementptr inbounds nuw i8, ptr %0, i64 536
  %15 = load ptr, ptr %14, align 8, !tbaa !103
  %.not = icmp eq ptr %15, null
  br i1 %.not, label %20, label %16

16:                                               ; preds = %13
  %17 = getelementptr inbounds nuw i8, ptr %15, i64 120
  %18 = load ptr, ptr %17, align 8, !tbaa !187
  %.not13 = icmp eq ptr %18, null
  br i1 %.not13, label %20, label %19

19:                                               ; preds = %16
  tail call void %18(ptr noundef nonnull %0) #12
  br label %20

20:                                               ; preds = %19, %16, %13
  ret void
}